target datalayout = "e-m:e-p270:32:32-p271:32:32-p272:64:64-i64:64-i128:128-f80:128-n8:16:32:64-S128"
target triple = "x86_64-pc-linux-gnu"

%"class.std::__cxx11::basic_string" = type { %"struct.std::__cxx11::basic_string<char>::_Alloc_hider", i64, %union.anon }
%"struct.std::__cxx11::basic_string<char>::_Alloc_hider" = type { ptr }
%union.anon = type { i64, [8 x i8] }
%"struct.DeformationModel::GridPrototype" = type { double, double, double, double, i32, i32 }
%"struct.(anonymous namespace)::Grid" = type { %"struct.DeformationModel::GridPrototype", ptr, ptr, i8, i8, i32, i32, i32 }

@_ZN16DeformationModelL9STR_METREB5cxx11E = internal global %"class.std::__cxx11::basic_string" zeroinitializer, align 8

; Function Attrs: mustprogress uwtable
define internal noundef zeroext i1 @_ZNK12_GLOBAL__N_14Grid24getEastingNorthingOffsetEiiRdS1_(ptr noundef nonnull align 8 dereferenceable(72) %0, i32 noundef %1, i32 noundef %2, ptr noundef nonnull align 8 dereferenceable(8) %3, ptr noundef nonnull align 8 dereferenceable(8) %4) #6 align 2 {
  %6 = alloca i1, align 1
  %7 = alloca ptr, align 8
  %8 = alloca i32, align 4
  %9 = alloca i32, align 4
  %10 = alloca ptr, align 8
  %11 = alloca ptr, align 8
  %12 = alloca float, align 4
  %13 = alloca float, align 4
  %14 = alloca i8, align 1
  store ptr %0, ptr %7, align 8
  store i32 %1, ptr %8, align 4
  store i32 %2, ptr %9, align 4
  store ptr %3, ptr %10, align 8
  store ptr %4, ptr %11, align 8
  %15 = load ptr, ptr %7, align 8
  %16 = call noundef zeroext i1 @_ZNK12_GLOBAL__N_14Grid15checkHorizontalERKNSt7__cxx1112basic_stringIcSt11char_traitsIcESaIcEEE(ptr noundef nonnull align 8 dereferenceable(72) %15, ptr noundef nonnull align 8 dereferenceable(32) @_ZN16DeformationModelL9STR_METREB5cxx11E)
  br i1 %16, label %18, label %17

17:                                               ; preds = %5
  store i1 false, ptr %6, align 1
  br label %51

18:                                               ; preds = %5
  store float 0.000000e+00, ptr %12, align 4
  store float 0.000000e+00, ptr %13, align 4
  %19 = getelementptr inbounds %"struct.(anonymous namespace)::Grid", ptr %15, i32 0, i32 2
  %20 = load ptr, ptr %19, align 8
  %21 = load i32, ptr %8, align 4
  %22 = load i32, ptr %9, align 4
  %23 = getelementptr inbounds %"struct.(anonymous namespace)::Grid", ptr %15, i32 0, i32 5
  %24 = load i32, ptr %23, align 4
  %25 = load ptr, ptr %20, align 8
  %26 = getelementptr inbounds ptr, ptr %25, i64 9
  %27 = load ptr, ptr %26, align 8
  %28 = call noundef zeroext i1 %27(ptr noundef nonnull align 8 dereferenceable(144) %20, i32 noundef %21, i32 noundef %22, i32 noundef %24, ptr noundef nonnull align 4 dereferenceable(4) %12)
  br i1 %28, label %29, label %40

29:                                               ; preds = %18
  %30 = getelementptr inbounds %"struct.(anonymous namespace)::Grid", ptr %15, i32 0, i32 2
  %31 = load ptr, ptr %30, align 8
  %32 = load i32, ptr %8, align 4
  %33 = load i32, ptr %9, align 4
  %34 = getelementptr inbounds %"struct.(anonymous namespace)::Grid", ptr %15, i32 0, i32 6
  %35 = load i32, ptr %34, align 8
  %36 = load ptr, ptr %31, align 8
  %37 = getelementptr inbounds ptr, ptr %36, i64 9
  %38 = load ptr, ptr %37, align 8
  %39 = call noundef zeroext i1 %38(ptr noundef nonnull align 8 dereferenceable(144) %31, i32 noundef %32, i32 noundef %33, i32 noundef %35, ptr noundef nonnull align 4 dereferenceable(4) %13)
  br label %40

40:                                               ; preds = %29, %18
  %41 = phi i1 [ false, %18 ], [ %39, %29 ]
  %42 = zext i1 %41 to i8
  store i8 %42, ptr %14, align 1
  %43 = load float, ptr %12, align 4
  %44 = fpext float %43 to double
  %45 = load ptr, ptr %10, align 8
  store double %44, ptr %45, align 8
  %46 = load float, ptr %13, align 4
  %47 = fpext float %46 to double
  %48 = load ptr, ptr %11, align 8
  store double %47, ptr %48, align 8
  %49 = load i8, ptr %14, align 1
  %50 = trunc i8 %49 to i1
  store i1 %50, ptr %6, align 1
  br label %51

51:                                               ; preds = %40, %17
  %52 = load i1, ptr %6, align 1
  ret i1 %52
}

; Function Attrs: mustprogress uwtable
define internal noundef zeroext i1 @_ZNK12_GLOBAL__N_14Grid25getEastingNorthingZOffsetEiiRdS1_S1_(ptr noundef nonnull align 8 dereferenceable(72) %0, i32 noundef %1, i32 noundef %2, ptr noundef nonnull align 8 dereferenceable(8) %3, ptr noundef nonnull align 8 dereferenceable(8) %4, ptr noundef nonnull align 8 dereferenceable(8) %5) #6 align 2 {
  %7 = alloca ptr, align 8
  %8 = alloca i32, align 4
  %9 = alloca i32, align 4
  %10 = alloca ptr, align 8
  %11 = alloca ptr, align 8
  %12 = alloca ptr, align 8
  store ptr %0, ptr %7, align 8
  store i32 %1, ptr %8, align 4
  store i32 %2, ptr %9, align 4
  store ptr %3, ptr %10, align 8
  store ptr %4, ptr %11, align 8
  store ptr %5, ptr %12, align 8
  %13 = load ptr, ptr %7, align 8
  %14 = load i32, ptr %8, align 4
  %15 = load i32, ptr %9, align 4
  %16 = load ptr, ptr %10, align 8
  %17 = load ptr, ptr %11, align 8
  %18 = call noundef zeroext i1 @_ZNK12_GLOBAL__N_14Grid24getEastingNorthingOffsetEiiRdS1_(ptr noundef nonnull align 8 dereferenceable(72) %13, i32 noundef %14, i32 noundef %15, ptr noundef nonnull align 8 dereferenceable(8) %16, ptr noundef nonnull align 8 dereferenceable(8) %17)
  br i1 %18, label %19, label %24

19:                                               ; preds = %6
  %20 = load i32, ptr %8, align 4
  %21 = load i32, ptr %9, align 4
  %22 = load ptr, ptr %12, align 8
  %23 = call noundef zeroext i1 @_ZNK12_GLOBAL__N_14Grid10getZOffsetEiiRd(ptr noundef nonnull align 8 dereferenceable(72) %13, i32 noundef %20, i32 noundef %21, ptr noundef nonnull align 8 dereferenceable(8) %22)
  br label %24

24:                                               ; preds = %19, %6
  %25 = phi i1 [ false, %6 ], [ %23, %19 ]
  ret i1 %25
}