; Function Attrs: mustprogress uwtable
define internal fastcc noundef zeroext i1 @_ZNK12_GLOBAL__N_14Grid25getEastingNorthingZOffsetEiiRdS1_S1_(ptr nocapture noundef nonnull align 8 dereferenceable(72) %0, i32 noundef %1, i32 noundef %2, ptr nocapture noundef nonnull writeonly align 8 dereferenceable(8) %3, ptr nocapture noundef nonnull writeonly align 8 dereferenceable(8) %4, ptr nocapture noundef nonnull writeonly align 8 dereferenceable(8) %5) unnamed_addr #6 align 2 {
  %7 = alloca float, align 4
  %8 = alloca float, align 4
  call void @llvm.lifetime.start.p0(i64 4, ptr nonnull %7)
  call void @llvm.lifetime.start.p0(i64 4, ptr nonnull %8)
  %9 = tail call fastcc noundef zeroext i1 @_ZNK12_GLOBAL__N_14Grid15checkHorizontalERKNSt7__cxx1112basic_stringIcSt11char_traitsIcESaIcEEE(ptr noundef nonnull align 8 dereferenceable(72) %0, ptr noundef nonnull align 8 dereferenceable(32) @_ZN16DeformationModelL9STR_METREB5cxx11E)
  br i1 %9, label %10, label %_ZNK12_GLOBAL__N_14Grid24getEastingNorthingOffsetEiiRdS1_.exit.thread

_ZNK12_GLOBAL__N_14Grid24getEastingNorthingOffsetEiiRdS1_.exit.thread: ; preds = %6
  call void @llvm.lifetime.end.p0(i64 4, ptr nonnull %7)
  call void @llvm.lifetime.end.p0(i64 4, ptr nonnull %8)
  br label %33

10:                                               ; preds = %6
  store float 0.000000e+00, ptr %7, align 4
  store float 0.000000e+00, ptr %8, align 4
  %11 = getelementptr inbounds i8, ptr %0, i64 48
  %12 = load ptr, ptr %11, align 8
  %13 = getelementptr inbounds i8, ptr %0, i64 60
  %14 = load i32, ptr %13, align 4
  %15 = load ptr, ptr %12, align 8
  %16 = getelementptr inbounds i8, ptr %15, i64 72
  %17 = load ptr, ptr %16, align 8
  %18 = call noundef zeroext i1 %17(ptr noundef nonnull align 8 dereferenceable(144) %12, i32 noundef %1, i32 noundef %2, i32 noundef %14, ptr noundef nonnull align 4 dereferenceable(4) %7)
  br i1 %18, label %_ZNK12_GLOBAL__N_14Grid24getEastingNorthingOffsetEiiRdS1_.exit, label %_ZNK12_GLOBAL__N_14Grid24getEastingNorthingOffsetEiiRdS1_.exit.thread8

_ZNK12_GLOBAL__N_14Grid24getEastingNorthingOffsetEiiRdS1_.exit.thread8: ; preds = %10
  %19 = load float, ptr %7, align 4
  %20 = fpext float %19 to double
  store double %20, ptr %3, align 8
  store double 0.000000e+00, ptr %4, align 8
  call void @llvm.lifetime.end.p0(i64 4, ptr nonnull %7)
  call void @llvm.lifetime.end.p0(i64 4, ptr nonnull %8)
  br label %33

_ZNK12_GLOBAL__N_14Grid24getEastingNorthingOffsetEiiRdS1_.exit: ; preds = %10
  %21 = load ptr, ptr %11, align 8
  %22 = getelementptr inbounds i8, ptr %0, i64 64
  %23 = load i32, ptr %22, align 8
  %24 = load ptr, ptr %21, align 8
  %25 = getelementptr inbounds i8, ptr %24, i64 72
  %26 = load ptr, ptr %25, align 8
  %27 = call noundef zeroext i1 %26(ptr noundef nonnull align 8 dereferenceable(144) %21, i32 noundef %1, i32 noundef %2, i32 noundef %23, ptr noundef nonnull align 4 dereferenceable(4) %8)
  %.pre.i = load float, ptr %8, align 4
  %28 = fpext float %.pre.i to double
  %29 = load float, ptr %7, align 4
  %30 = fpext float %29 to double
  store double %30, ptr %3, align 8
  store double %28, ptr %4, align 8
  call void @llvm.lifetime.end.p0(i64 4, ptr nonnull %7)
  call void @llvm.lifetime.end.p0(i64 4, ptr nonnull %8)
  br i1 %27, label %31, label %33

31:                                               ; preds = %_ZNK12_GLOBAL__N_14Grid24getEastingNorthingOffsetEiiRdS1_.exit
  %32 = call fastcc noundef zeroext i1 @_ZNK12_GLOBAL__N_14Grid10getZOffsetEiiRd(ptr noundef nonnull align 8 dereferenceable(72) %0, i32 noundef %1, i32 noundef %2, ptr noundef nonnull align 8 dereferenceable(8) %5)
  br label %33

33:                                               ; preds = %_ZNK12_GLOBAL__N_14Grid24getEastingNorthingOffsetEiiRdS1_.exit.thread8, %_ZNK12_GLOBAL__N_14Grid24getEastingNorthingOffsetEiiRdS1_.exit.thread, %31, %_ZNK12_GLOBAL__N_14Grid24getEastingNorthingOffsetEiiRdS1_.exit
  %34 = phi i1 [ false, %_ZNK12_GLOBAL__N_14Grid24getEastingNorthingOffsetEiiRdS1_.exit ], [ %32, %31 ], [ false, %_ZNK12_GLOBAL__N_14Grid24getEastingNorthingOffsetEiiRdS1_.exit.thread ], [ false, %_ZNK12_GLOBAL__N_14Grid24getEastingNorthingOffsetEiiRdS1_.exit.thread8 ]
  ret i1 %34
}